; ModuleID = '32/183.c'
source_filename = "32/183.c"
target datalayout = "e-m:e-p270:32:32-p271:32:32-p272:64:64-i64:64-f80:128-n8:16:32:64-S128"
target triple = "x86_64-pc-linux-gnu"

@.str = private unnamed_addr constant [3 x i8] c"%d\00", align 1
@.str.1 = private unnamed_addr constant [3 x i8] c"%s\00", align 1
@.str.2 = private unnamed_addr constant [3 x i8] c"%c\00", align 1
@.str.3 = private unnamed_addr constant [2 x i8] c"\0A\00", align 1

; Function Attrs: noinline nounwind uwtable
define dso_local i32 @main() #0 {
  %1 = alloca i32, align 4
  %2 = alloca i32, align 4
  %3 = alloca i32, align 4
  %4 = alloca i32, align 4
  %5 = alloca i32, align 4
  %6 = alloca i32, align 4
  %7 = alloca i32, align 4
  %8 = alloca [100 x i8], align 16
  %9 = alloca [100 x i8], align 16
  store i32 0, i32* %1, align 4
  %10 = call i32 (i8*, ...) @__isoc99_scanf(i8* getelementptr inbounds ([3 x i8], [3 x i8]* @.str, i64 0, i64 0), i32* %4)
  store i32 0, i32* %2, align 4
  br label %11

11:                                               ; preds = %129, %0
  %12 = load i32, i32* %2, align 4
  %13 = load i32, i32* %4, align 4
  %14 = icmp slt i32 %12, %13
  br i1 %14, label %15, label %132

15:                                               ; preds = %11
  %16 = getelementptr inbounds [100 x i8], [100 x i8]* %8, i64 0, i64 0
  %17 = call i32 (i8*, ...) @__isoc99_scanf(i8* getelementptr inbounds ([3 x i8], [3 x i8]* @.str.1, i64 0, i64 0), i8* %16)
  %18 = getelementptr inbounds [100 x i8], [100 x i8]* %9, i64 0, i64 0
  %19 = call i32 (i8*, ...) @__isoc99_scanf(i8* getelementptr inbounds ([3 x i8], [3 x i8]* @.str.1, i64 0, i64 0), i8* %18)
  %20 = getelementptr inbounds [100 x i8], [100 x i8]* %8, i64 0, i64 0
  %21 = call i64 @strlen(i8* %20) #3
  %22 = trunc i64 %21 to i32
  store i32 %22, i32* %5, align 4
  %23 = getelementptr inbounds [100 x i8], [100 x i8]* %9, i64 0, i64 0
  %24 = call i64 @strlen(i8* %23) #3
  %25 = trunc i64 %24 to i32
  store i32 %25, i32* %6, align 4
  %26 = load i32, i32* %6, align 4
  %27 = sub nsw i32 %26, 1
  store i32 %27, i32* %7, align 4
  %28 = load i32, i32* %5, align 4
  store i32 %28, i32* %3, align 4
  br label %29

29:                                               ; preds = %98, %15
  %30 = load i32, i32* %3, align 4
  %31 = load i32, i32* %5, align 4
  %32 = load i32, i32* %6, align 4
  %33 = sub nsw i32 %31, %32
  %34 = icmp sgt i32 %30, %33
  br i1 %34, label %35, label %101

35:                                               ; preds = %29
  %36 = load i32, i32* %3, align 4
  %37 = sub nsw i32 %36, 1
  %38 = sext i32 %37 to i64
  %39 = getelementptr inbounds [100 x i8], [100 x i8]* %8, i64 0, i64 %38
  %40 = load i8, i8* %39, align 1
  %41 = sext i8 %40 to i32
  %42 = load i32, i32* %7, align 4
  %43 = sext i32 %42 to i64
  %44 = getelementptr inbounds [100 x i8], [100 x i8]* %9, i64 0, i64 %43
  %45 = load i8, i8* %44, align 1
  %46 = sext i8 %45 to i32
  %47 = icmp sge i32 %41, %46
  br i1 %47, label %48, label %69

48:                                               ; preds = %35
  %49 = load i32, i32* %3, align 4
  %50 = sub nsw i32 %49, 1
  %51 = sext i32 %50 to i64
  %52 = getelementptr inbounds [100 x i8], [100 x i8]* %8, i64 0, i64 %51
  %53 = load i8, i8* %52, align 1
  %54 = sext i8 %53 to i32
  %55 = load i32, i32* %7, align 4
  %56 = sext i32 %55 to i64
  %57 = getelementptr inbounds [100 x i8], [100 x i8]* %9, i64 0, i64 %56
  %58 = load i8, i8* %57, align 1
  %59 = sext i8 %58 to i32
  %60 = sub nsw i32 %54, %59
  %61 = add nsw i32 %60, 48
  %62 = trunc i32 %61 to i8
  %63 = load i32, i32* %3, align 4
  %64 = sub nsw i32 %63, 1
  %65 = sext i32 %64 to i64
  %66 = getelementptr inbounds [100 x i8], [100 x i8]* %8, i64 0, i64 %65
  store i8 %62, i8* %66, align 1
  %67 = load i32, i32* %7, align 4
  %68 = add nsw i32 %67, -1
  store i32 %68, i32* %7, align 4
  br label %97

69:                                               ; preds = %35
  %70 = load i32, i32* %3, align 4
  %71 = sub nsw i32 %70, 1
  %72 = sext i32 %71 to i64
  %73 = getelementptr inbounds [100 x i8], [100 x i8]* %8, i64 0, i64 %72
  %74 = load i8, i8* %73, align 1
  %75 = sext i8 %74 to i32
  %76 = add nsw i32 %75, 10
  %77 = load i32, i32* %7, align 4
  %78 = sext i32 %77 to i64
  %79 = getelementptr inbounds [100 x i8], [100 x i8]* %9, i64 0, i64 %78
  %80 = load i8, i8* %79, align 1
  %81 = sext i8 %80 to i32
  %82 = sub nsw i32 %76, %81
  %83 = add nsw i32 %82, 48
  %84 = trunc i32 %83 to i8
  %85 = load i32, i32* %3, align 4
  %86 = sub nsw i32 %85, 1
  %87 = sext i32 %86 to i64
  %88 = getelementptr inbounds [100 x i8], [100 x i8]* %8, i64 0, i64 %87
  store i8 %84, i8* %88, align 1
  %89 = load i32, i32* %3, align 4
  %90 = sub nsw i32 %89, 2
  %91 = sext i32 %90 to i64
  %92 = getelementptr inbounds [100 x i8], [100 x i8]* %8, i64 0, i64 %91
  %93 = load i8, i8* %92, align 1
  %94 = add i8 %93, -1
  store i8 %94, i8* %92, align 1
  %95 = load i32, i32* %7, align 4
  %96 = add nsw i32 %95, -1
  store i32 %96, i32* %7, align 4
  br label %97

97:                                               ; preds = %69, %48
  br label %98

98:                                               ; preds = %97
  %99 = load i32, i32* %3, align 4
  %100 = add nsw i32 %99, -1
  store i32 %100, i32* %3, align 4
  br label %29

101:                                              ; preds = %29
  store i32 0, i32* %3, align 4
  br label %102

102:                                              ; preds = %109, %101
  %103 = load i32, i32* %3, align 4
  %104 = sext i32 %103 to i64
  %105 = getelementptr inbounds [100 x i8], [100 x i8]* %8, i64 0, i64 %104
  %106 = load i8, i8* %105, align 1
  %107 = sext i8 %106 to i32
  %108 = icmp eq i32 %107, 0
  br i1 %108, label %109, label %112

109:                                              ; preds = %102
  %110 = load i32, i32* %3, align 4
  %111 = add nsw i32 %110, 1
  store i32 %111, i32* %3, align 4
  br label %102

112:                                              ; preds = %102
  br label %113

113:                                              ; preds = %124, %112
  %114 = load i32, i32* %3, align 4
  %115 = load i32, i32* %5, align 4
  %116 = icmp slt i32 %114, %115
  br i1 %116, label %117, label %127

117:                                              ; preds = %113
  %118 = load i32, i32* %3, align 4
  %119 = sext i32 %118 to i64
  %120 = getelementptr inbounds [100 x i8], [100 x i8]* %8, i64 0, i64 %119
  %121 = load i8, i8* %120, align 1
  %122 = sext i8 %121 to i32
  %123 = call i32 (i8*, ...) @printf(i8* getelementptr inbounds ([3 x i8], [3 x i8]* @.str.2, i64 0, i64 0), i32 %122)
  br label %124

124:                                              ; preds = %117
  %125 = load i32, i32* %3, align 4
  %126 = add nsw i32 %125, 1
  store i32 %126, i32* %3, align 4
  br label %113

127:                                              ; preds = %113
  %128 = call i32 (i8*, ...) @printf(i8* getelementptr inbounds ([2 x i8], [2 x i8]* @.str.3, i64 0, i64 0))
  br label %129

129:                                              ; preds = %127
  %130 = load i32, i32* %2, align 4
  %131 = add nsw i32 %130, 1
  store i32 %131, i32* %2, align 4
  br label %11

132:                                              ; preds = %11
  ret i32 0
}

declare dso_local i32 @__isoc99_scanf(i8*, ...) #1

; Function Attrs: nounwind readonly
declare dso_local i64 @strlen(i8*) #2

declare dso_local i32 @printf(i8*, ...) #1


!llvm.module.flags = !{!0}
!llvm.ident = !{!1}

!0 = !{i32 1, !"wchar_size", i32 4}
!1 = !{!"clang version 10.0.0-4ubuntu1 "}
