; ModuleID = 'source-C-CXX/31/183.c'
source_filename = "source-C-CXX/31/183.c"
target datalayout = "e-m:e-p270:32:32-p271:32:32-p272:64:64-i64:64-f80:128-n8:16:32:64-S128"
target triple = "x86_64-pc-linux-gnu"

@.str = private unnamed_addr constant [3 x i8] c"%d\00", align 1
@.str.1 = private unnamed_addr constant [3 x i8] c"%s\00", align 1

; Function Attrs: nofree nounwind sspstrong uwtable
define dso_local i32 @main() local_unnamed_addr #0 {
  %1 = alloca i32, align 4
  %2 = alloca [100 x i8], align 16
  %3 = alloca [100 x i8], align 16
  %4 = bitcast i32* %1 to i8*
  call void @llvm.lifetime.start.p0i8(i64 4, i8* nonnull %4) #5
  %5 = getelementptr inbounds [100 x i8], [100 x i8]* %2, i64 0, i64 0
  call void @llvm.lifetime.start.p0i8(i64 100, i8* nonnull %5) #5
  %6 = getelementptr inbounds [100 x i8], [100 x i8]* %3, i64 0, i64 0
  call void @llvm.lifetime.start.p0i8(i64 100, i8* nonnull %6) #5
  %7 = call i32 (i8*, ...) @__isoc99_scanf(i8* getelementptr inbounds ([3 x i8], [3 x i8]* @.str, i64 0, i64 0), i32* nonnull %1)
  %8 = load i32, i32* %1, align 4, !tbaa !5
  %9 = icmp sgt i32 %8, 0
  br i1 %9, label %10, label %75

10:                                               ; preds = %0, %70
  %11 = phi i32 [ %72, %70 ], [ 0, %0 ]
  %12 = call i32 (i8*, ...) @__isoc99_scanf(i8* getelementptr inbounds ([3 x i8], [3 x i8]* @.str.1, i64 0, i64 0), i8* nonnull %5)
  %13 = call i32 (i8*, ...) @__isoc99_scanf(i8* getelementptr inbounds ([3 x i8], [3 x i8]* @.str.1, i64 0, i64 0), i8* nonnull %6)
  %14 = call i64 @strlen(i8* noundef nonnull %5) #6
  %15 = trunc i64 %14 to i32
  %16 = call i64 @strlen(i8* noundef nonnull %6) #6
  %17 = trunc i64 %16 to i32
  %18 = icmp sgt i32 %17, 0
  br i1 %18, label %19, label %49

19:                                               ; preds = %10
  %20 = sub i64 %14, %16
  %21 = shl i64 %16, 32
  %22 = ashr exact i64 %21, 32
  %23 = shl i64 %14, 32
  %24 = ashr exact i64 %23, 32
  %25 = shl i64 %20, 32
  %26 = ashr exact i64 %25, 32
  br label %27

27:                                               ; preds = %19, %47
  %28 = phi i64 [ %24, %19 ], [ %31, %47 ]
  %29 = phi i64 [ %22, %19 ], [ %30, %47 ]
  %30 = add nsw i64 %29, -1
  %31 = add nsw i64 %28, -1
  %32 = getelementptr inbounds [100 x i8], [100 x i8]* %2, i64 0, i64 %31
  %33 = load i8, i8* %32, align 1, !tbaa !9
  %34 = getelementptr inbounds [100 x i8], [100 x i8]* %3, i64 0, i64 %30
  %35 = load i8, i8* %34, align 1, !tbaa !9
  %36 = icmp slt i8 %33, %35
  br i1 %36, label %40, label %37

37:                                               ; preds = %27
  %38 = add i8 %33, 48
  %39 = sub i8 %38, %35
  store i8 %39, i8* %32, align 1, !tbaa !9
  br label %47

40:                                               ; preds = %27
  %41 = add i8 %33, 58
  %42 = sub i8 %41, %35
  store i8 %42, i8* %32, align 1, !tbaa !9
  %43 = add nsw i64 %28, -2
  %44 = getelementptr inbounds [100 x i8], [100 x i8]* %2, i64 0, i64 %43
  %45 = load i8, i8* %44, align 1, !tbaa !9
  %46 = add i8 %45, -1
  store i8 %46, i8* %44, align 1, !tbaa !9
  br label %47

47:                                               ; preds = %37, %40
  %48 = icmp sgt i64 %31, %26
  br i1 %48, label %27, label %49, !llvm.loop !10

49:                                               ; preds = %47, %10
  br label %50

50:                                               ; preds = %49, %50
  %51 = phi i64 [ %55, %50 ], [ 0, %49 ]
  %52 = getelementptr inbounds [100 x i8], [100 x i8]* %2, i64 0, i64 %51
  %53 = load i8, i8* %52, align 1, !tbaa !9
  %54 = icmp eq i8 %53, 0
  %55 = add nuw i64 %51, 1
  br i1 %54, label %50, label %56, !llvm.loop !12

56:                                               ; preds = %50
  %57 = trunc i64 %51 to i32
  %58 = icmp slt i32 %57, %15
  br i1 %58, label %59, label %70

59:                                               ; preds = %56
  %60 = and i64 %51, 4294967295
  br label %61

61:                                               ; preds = %59, %61
  %62 = phi i64 [ %60, %59 ], [ %67, %61 ]
  %63 = getelementptr inbounds [100 x i8], [100 x i8]* %2, i64 0, i64 %62
  %64 = load i8, i8* %63, align 1, !tbaa !9
  %65 = sext i8 %64 to i32
  %66 = call i32 @putchar(i32 %65)
  %67 = add nuw nsw i64 %62, 1
  %68 = trunc i64 %67 to i32
  %69 = icmp eq i32 %68, %15
  br i1 %69, label %70, label %61, !llvm.loop !13

70:                                               ; preds = %61, %56
  %71 = call i32 @putchar(i32 10)
  %72 = add nuw nsw i32 %11, 1
  %73 = load i32, i32* %1, align 4, !tbaa !5
  %74 = icmp slt i32 %72, %73
  br i1 %74, label %10, label %75, !llvm.loop !14

75:                                               ; preds = %70, %0
  call void @llvm.lifetime.end.p0i8(i64 100, i8* nonnull %6) #5
  call void @llvm.lifetime.end.p0i8(i64 100, i8* nonnull %5) #5
  call void @llvm.lifetime.end.p0i8(i64 4, i8* nonnull %4) #5
  ret i32 0
}

; Function Attrs: argmemonly mustprogress nofree nosync nounwind willreturn
declare void @llvm.lifetime.start.p0i8(i64 immarg, i8* nocapture) #1

; Function Attrs: nofree nounwind
declare noundef i32 @__isoc99_scanf(i8* nocapture noundef readonly, ...) local_unnamed_addr #2

; Function Attrs: argmemonly mustprogress nofree nounwind readonly willreturn
declare i64 @strlen(i8* nocapture) local_unnamed_addr #3

; Function Attrs: argmemonly mustprogress nofree nosync nounwind willreturn
declare void @llvm.lifetime.end.p0i8(i64 immarg, i8* nocapture) #1

; Function Attrs: nofree nounwind
declare noundef i32 @putchar(i32 noundef) local_unnamed_addr #4


!llvm.module.flags = !{!0, !1, !2, !3}
!llvm.ident = !{!4}

!0 = !{i32 1, !"wchar_size", i32 4}
!1 = !{i32 7, !"PIC Level", i32 2}
!2 = !{i32 7, !"PIE Level", i32 2}
!3 = !{i32 7, !"uwtable", i32 1}
!4 = !{!"clang version 13.0.0"}
!5 = !{!6, !6, i64 0}
!6 = !{!"int", !7, i64 0}
!7 = !{!"omnipotent char", !8, i64 0}
!8 = !{!"Simple C/C++ TBAA"}
!9 = !{!7, !7, i64 0}
!10 = distinct !{!10, !11}
!11 = !{!"llvm.loop.mustprogress"}
!12 = distinct !{!12, !11}
!13 = distinct !{!13, !11}
!14 = distinct !{!14, !11}
